target datalayout = "e-m:e-p270:32:32-p271:32:32-p272:64:64-i64:64-i128:128-f80:128-n8:16:32:64-S128"
target triple = "x86_64-pc-linux-gnu"

%union.pthread_mutex_t = type { %struct.__pthread_mutex_s }
%struct.__pthread_mutex_s = type { i32, i32, i32, i32, i32, i16, i16, %struct.__pthread_internal_list }
%struct.__pthread_internal_list = type { ptr, ptr }
%struct.SessionRow = type { i32, i32, [3 x %struct.WOLFSSL_SESSION] }
%struct.WOLFSSL_SESSION = type { i32, i32, %struct.wolfSSL_RefWithMutex, [32 x i8], i8, ptr, i8, i32, i32, [32 x i8], i8, [48 x i8], i16, i8, i8, i16, [20 x i8], i16, i8 }
%struct.wolfSSL_RefWithMutex = type { %union.pthread_mutex_t, i32 }

@session_lock = internal global %union.pthread_mutex_t zeroinitializer, align 8
@SessionCache = internal global [11 x %struct.SessionRow] zeroinitializer, align 16

; Function Attrs: inlinehint nounwind uwtable
define internal i32 @ctMaskWord32GTE(i32 noundef %0, i32 noundef %1) #4 {
  %3 = alloca i32, align 4
  %4 = alloca i32, align 4
  store i32 %0, ptr %3, align 4, !tbaa !7
  store i32 %1, ptr %4, align 4, !tbaa !7
  %5 = load i32, ptr %3, align 4, !tbaa !7
  %6 = zext i32 %5 to i64
  %7 = load i32, ptr %4, align 4, !tbaa !7
  %8 = zext i32 %7 to i64
  %9 = sub i64 %6, %8
  %10 = lshr i64 %9, 63
  %11 = sub i64 %10, 1
  %12 = trunc i64 %11 to i32
  ret i32 %12
}

; Function Attrs: inlinehint nounwind uwtable
define internal i32 @MakeWordFromHash(ptr noundef %0) #4 {
  %2 = alloca ptr, align 8
  store ptr %0, ptr %2, align 8, !tbaa !21
  %3 = load ptr, ptr %2, align 8, !tbaa !21
  %4 = getelementptr inbounds i8, ptr %3, i64 0
  %5 = load i8, ptr %4, align 1, !tbaa !20
  %6 = zext i8 %5 to i32
  %7 = shl i32 %6, 24
  %8 = load ptr, ptr %2, align 8, !tbaa !21
  %9 = getelementptr inbounds i8, ptr %8, i64 1
  %10 = load i8, ptr %9, align 1, !tbaa !20
  %11 = zext i8 %10 to i32
  %12 = shl i32 %11, 16
  %13 = or i32 %7, %12
  %14 = load ptr, ptr %2, align 8, !tbaa !21
  %15 = getelementptr inbounds i8, ptr %14, i64 2
  %16 = load i8, ptr %15, align 1, !tbaa !20
  %17 = zext i8 %16 to i32
  %18 = shl i32 %17, 8
  %19 = or i32 %13, %18
  %20 = load ptr, ptr %2, align 8, !tbaa !21
  %21 = getelementptr inbounds i8, ptr %20, i64 3
  %22 = load i8, ptr %21, align 1, !tbaa !20
  %23 = zext i8 %22 to i32
  %24 = or i32 %19, %23
  ret i32 %24
}

; Function Attrs: inlinehint nounwind uwtable
define internal i32 @min(i32 noundef %0, i32 noundef %1) #4 {
  %3 = alloca i32, align 4
  %4 = alloca i32, align 4
  %5 = alloca i32, align 4
  store i32 %0, ptr %3, align 4, !tbaa !7
  store i32 %1, ptr %4, align 4, !tbaa !7
  call void @llvm.lifetime.start.p0(i64 4, ptr %5) #9
  %6 = load i32, ptr %3, align 4, !tbaa !7
  %7 = load i32, ptr %4, align 4, !tbaa !7
  %8 = call i32 @ctMaskWord32GTE(i32 noundef %6, i32 noundef %7)
  store i32 %8, ptr %5, align 4, !tbaa !7
  %9 = load i32, ptr %3, align 4, !tbaa !7
  %10 = load i32, ptr %5, align 4, !tbaa !7
  %11 = xor i32 %10, -1
  %12 = and i32 %9, %11
  %13 = load i32, ptr %4, align 4, !tbaa !7
  %14 = load i32, ptr %5, align 4, !tbaa !7
  %15 = and i32 %13, %14
  %16 = or i32 %12, %15
  call void @llvm.lifetime.end.p0(i64 4, ptr %5) #9
  ret i32 %16
}

; Function Attrs: inlinehint nounwind uwtable
define internal i32 @HashObject(ptr noundef %0, i32 noundef %1, ptr noundef %2) #4 {
  %4 = alloca ptr, align 8
  %5 = alloca i32, align 4
  %6 = alloca ptr, align 8
  %7 = alloca [64 x i8], align 16
  store ptr %0, ptr %4, align 8, !tbaa !21
  store i32 %1, ptr %5, align 4, !tbaa !7
  store ptr %2, ptr %6, align 8, !tbaa !92
  call void @llvm.lifetime.start.p0(i64 64, ptr %7) #9
  %8 = load ptr, ptr %4, align 8, !tbaa !21
  %9 = load i32, ptr %5, align 4, !tbaa !7
  %10 = getelementptr inbounds [64 x i8], ptr %7, i64 0, i64 0
  %11 = call i32 @wc_Md5Hash(ptr noundef %8, i32 noundef %9, ptr noundef %10)
  %12 = load ptr, ptr %6, align 8, !tbaa !92
  store i32 %11, ptr %12, align 4, !tbaa !7
  %13 = load ptr, ptr %6, align 8, !tbaa !92
  %14 = load i32, ptr %13, align 4, !tbaa !7
  %15 = icmp eq i32 %14, 0
  br i1 %15, label %16, label %19

16:                                               ; preds = %3
  %17 = getelementptr inbounds [64 x i8], ptr %7, i64 0, i64 0
  %18 = call i32 @MakeWordFromHash(ptr noundef %17)
  br label %20

19:                                               ; preds = %3
  br label %20

20:                                               ; preds = %19, %16
  %21 = phi i32 [ %18, %16 ], [ 0, %19 ]
  call void @llvm.lifetime.end.p0(i64 64, ptr %7) #9
  ret i32 %21
}

; Function Attrs: nounwind uwtable
define internal i32 @TlsSessionCacheGetAndLock(ptr noundef %0, ptr noundef %1, ptr noundef %2, i8 noundef zeroext %3, i8 noundef zeroext %4) #0 {
  %6 = alloca i32, align 4
  %7 = alloca ptr, align 8
  %8 = alloca ptr, align 8
  %9 = alloca ptr, align 8
  %10 = alloca i8, align 1
  %11 = alloca i8, align 1
  %12 = alloca ptr, align 8
  %13 = alloca ptr, align 8
  %14 = alloca i32, align 4
  %15 = alloca i32, align 4
  %16 = alloca i32, align 4
  %17 = alloca i32, align 4
  %18 = alloca i32, align 4
  store ptr %0, ptr %7, align 8, !tbaa !21
  store ptr %1, ptr %8, align 8, !tbaa !126
  store ptr %2, ptr %9, align 8, !tbaa !92
  store i8 %3, ptr %10, align 1, !tbaa !20
  store i8 %4, ptr %11, align 1, !tbaa !20
  call void @llvm.lifetime.start.p0(i64 8, ptr %12) #9
  call void @llvm.lifetime.start.p0(i64 8, ptr %13) #9
  call void @llvm.lifetime.start.p0(i64 4, ptr %14) #9
  call void @llvm.lifetime.start.p0(i64 4, ptr %15) #9
  call void @llvm.lifetime.start.p0(i64 4, ptr %16) #9
  call void @llvm.lifetime.start.p0(i64 4, ptr %17) #9
  %19 = load ptr, ptr %8, align 8, !tbaa !126
  store ptr null, ptr %19, align 8, !tbaa !53
  %20 = load ptr, ptr %7, align 8, !tbaa !21
  %21 = call i32 @HashObject(ptr noundef %20, i32 noundef 32, ptr noundef %16)
  %22 = urem i32 %21, 11
  store i32 %22, ptr %14, align 4, !tbaa !7
  %23 = load i32, ptr %16, align 4, !tbaa !7
  %24 = icmp ne i32 %23, 0
  br i1 %24, label %25, label %27

25:                                               ; preds = %5
  %26 = load i32, ptr %16, align 4, !tbaa !7
  store i32 %26, ptr %6, align 4
  store i32 1, ptr %18, align 4
  br label %114

27:                                               ; preds = %5
  %28 = load i32, ptr %14, align 4, !tbaa !7
  %29 = zext i32 %28 to i64
  %30 = getelementptr inbounds nuw [11 x %struct.SessionRow], ptr @SessionCache, i64 0, i64 %29
  store ptr %30, ptr %12, align 8, !tbaa !97
  %31 = load i8, ptr %10, align 1, !tbaa !20
  %32 = icmp ne i8 %31, 0
  br i1 %32, label %33, label %35

33:                                               ; preds = %27
  %34 = call i32 @wc_LockRwLock_Rd(ptr noundef @session_lock)
  store i32 %34, ptr %16, align 4, !tbaa !7
  br label %37

35:                                               ; preds = %27
  %36 = call i32 @wc_LockRwLock_Wr(ptr noundef @session_lock)
  store i32 %36, ptr %16, align 4, !tbaa !7
  br label %37

37:                                               ; preds = %35, %33
  %38 = load i32, ptr %16, align 4, !tbaa !7
  %39 = icmp ne i32 %38, 0
  br i1 %39, label %40, label %41

40:                                               ; preds = %37
  store i32 -313, ptr %6, align 4
  store i32 1, ptr %18, align 4
  br label %114

41:                                               ; preds = %37
  %42 = load ptr, ptr %12, align 8, !tbaa !97
  %43 = getelementptr inbounds nuw %struct.SessionRow, ptr %42, i32 0, i32 1
  %44 = load i32, ptr %43, align 4, !tbaa !99
  %45 = call i32 @min(i32 noundef %44, i32 noundef 3)
  store i32 %45, ptr %15, align 4, !tbaa !7
  %46 = load ptr, ptr %12, align 8, !tbaa !97
  %47 = getelementptr inbounds nuw %struct.SessionRow, ptr %46, i32 0, i32 0
  %48 = load i32, ptr %47, align 8, !tbaa !102
  %49 = sub nsw i32 %48, 1
  store i32 %49, ptr %17, align 4, !tbaa !7
  %50 = load i32, ptr %17, align 4, !tbaa !7
  %51 = icmp slt i32 %50, 0
  br i1 %51, label %55, label %52

52:                                               ; preds = %41
  %53 = load i32, ptr %17, align 4, !tbaa !7
  %54 = icmp sge i32 %53, 3
  br i1 %54, label %55, label %56

55:                                               ; preds = %52, %41
  store i32 2, ptr %17, align 4, !tbaa !7
  br label %56

56:                                               ; preds = %55, %52
  br label %57

57:                                               ; preds = %101, %56
  %58 = load i32, ptr %15, align 4, !tbaa !7
  %59 = icmp sgt i32 %58, 0
  br i1 %59, label %60, label %104

60:                                               ; preds = %57
  %61 = load ptr, ptr %12, align 8, !tbaa !97
  %62 = getelementptr inbounds nuw %struct.SessionRow, ptr %61, i32 0, i32 2
  %63 = load i32, ptr %17, align 4, !tbaa !7
  %64 = sext i32 %63 to i64
  %65 = getelementptr inbounds [3 x %struct.WOLFSSL_SESSION], ptr %62, i64 0, i64 %64
  store ptr %65, ptr %13, align 8, !tbaa !53
  %66 = load ptr, ptr %13, align 8, !tbaa !53
  %67 = icmp ne ptr %66, null
  br i1 %67, label %68, label %92

68:                                               ; preds = %60
  %69 = load ptr, ptr %13, align 8, !tbaa !53
  %70 = getelementptr inbounds nuw %struct.WOLFSSL_SESSION, ptr %69, i32 0, i32 10
  %71 = load i8, ptr %70, align 4, !tbaa !55
  %72 = zext i8 %71 to i32
  %73 = icmp eq i32 %72, 32
  br i1 %73, label %74, label %92

74:                                               ; preds = %68
  %75 = load ptr, ptr %13, align 8, !tbaa !53
  %76 = getelementptr inbounds nuw %struct.WOLFSSL_SESSION, ptr %75, i32 0, i32 6
  %77 = load i8, ptr %76, align 8, !tbaa !91
  %78 = zext i8 %77 to i32
  %79 = load i8, ptr %11, align 1, !tbaa !20
  %80 = zext i8 %79 to i32
  %81 = icmp eq i32 %78, %80
  br i1 %81, label %82, label %92

82:                                               ; preds = %74
  %83 = load ptr, ptr %13, align 8, !tbaa !53
  %84 = getelementptr inbounds nuw %struct.WOLFSSL_SESSION, ptr %83, i32 0, i32 9
  %85 = getelementptr inbounds [32 x i8], ptr %84, i64 0, i64 0
  %86 = load ptr, ptr %7, align 8, !tbaa !21
  %87 = call i32 @memcmp(ptr noundef %85, ptr noundef %86, i64 noundef 32) #10
  %88 = icmp eq i32 %87, 0
  br i1 %88, label %89, label %92

89:                                               ; preds = %82
  %90 = load ptr, ptr %13, align 8, !tbaa !53
  %91 = load ptr, ptr %8, align 8, !tbaa !126
  store ptr %90, ptr %91, align 8, !tbaa !53
  br label %104

92:                                               ; preds = %82, %74, %68, %60
  %93 = load i32, ptr %17, align 4, !tbaa !7
  %94 = icmp sgt i32 %93, 0
  br i1 %94, label %95, label %98

95:                                               ; preds = %92
  %96 = load i32, ptr %17, align 4, !tbaa !7
  %97 = sub nsw i32 %96, 1
  br label %99

98:                                               ; preds = %92
  br label %99

99:                                               ; preds = %98, %95
  %100 = phi i32 [ %97, %95 ], [ 2, %98 ]
  store i32 %100, ptr %17, align 4, !tbaa !7
  br label %101

101:                                              ; preds = %99
  %102 = load i32, ptr %15, align 4, !tbaa !7
  %103 = add nsw i32 %102, -1
  store i32 %103, ptr %15, align 4, !tbaa !7
  br label %57, !llvm.loop !128

104:                                              ; preds = %89, %57
  %105 = load ptr, ptr %8, align 8, !tbaa !126
  %106 = load ptr, ptr %105, align 8, !tbaa !53
  %107 = icmp eq ptr %106, null
  br i1 %107, label %108, label %110

108:                                              ; preds = %104
  %109 = call i32 @wc_UnLockRwLock(ptr noundef @session_lock)
  br label %113

110:                                              ; preds = %104
  %111 = load i32, ptr %14, align 4, !tbaa !7
  %112 = load ptr, ptr %9, align 8, !tbaa !92
  store i32 %111, ptr %112, align 4, !tbaa !7
  br label %113

113:                                              ; preds = %110, %108
  store i32 0, ptr %6, align 4
  store i32 1, ptr %18, align 4
  br label %114

114:                                              ; preds = %113, %40, %25
  call void @llvm.lifetime.end.p0(i64 4, ptr %17) #9
  call void @llvm.lifetime.end.p0(i64 4, ptr %16) #9
  call void @llvm.lifetime.end.p0(i64 4, ptr %15) #9
  call void @llvm.lifetime.end.p0(i64 4, ptr %14) #9
  call void @llvm.lifetime.end.p0(i64 8, ptr %13) #9
  call void @llvm.lifetime.end.p0(i64 8, ptr %12) #9
  %115 = load i32, ptr %6, align 4
  ret i32 %115
}