; Function Attrs: nounwind uwtable
define internal fastcc i32 @TlsSessionCacheGetAndLock(ptr noundef %0, ptr noundef captures(none) initializes((0, 8)) %1, ptr noundef writeonly captures(none) %2, i8 noundef zeroext range(i8 0, 2) %3, i8 noundef zeroext %4) unnamed_addr #0 {
  %6 = alloca [64 x i8], align 16
  store ptr null, ptr %1, align 8, !tbaa !108
  call void @llvm.lifetime.start.p0(i64 64, ptr nonnull %6) #22
  %7 = call i32 @wc_Md5Hash(ptr noundef %0, i32 noundef 32, ptr noundef nonnull %6) #22
  %8 = icmp eq i32 %7, 0
  br i1 %8, label %9, label %HashObject.exit

HashObject.exit:                                  ; preds = %5
  call void @llvm.lifetime.end.p0(i64 64, ptr nonnull %6) #22
  br label %66

9:                                                ; preds = %5
  %10 = load i8, ptr %6, align 16, !tbaa !43
  %11 = zext i8 %10 to i32
  %12 = shl nuw i32 %11, 24
  %13 = getelementptr inbounds nuw i8, ptr %6, i64 1
  %14 = load i8, ptr %13, align 1, !tbaa !43
  %15 = zext i8 %14 to i32
  %16 = shl nuw nsw i32 %15, 16
  %17 = or disjoint i32 %16, %12
  %18 = getelementptr inbounds nuw i8, ptr %6, i64 2
  %19 = load i8, ptr %18, align 2, !tbaa !43
  %20 = zext i8 %19 to i32
  %21 = shl nuw nsw i32 %20, 8
  %22 = or disjoint i32 %17, %21
  %23 = getelementptr inbounds nuw i8, ptr %6, i64 3
  %24 = load i8, ptr %23, align 1, !tbaa !43
  %25 = zext i8 %24 to i32
  %26 = or disjoint i32 %22, %25
  call void @llvm.lifetime.end.p0(i64 64, ptr nonnull %6) #22
  %27 = urem i32 %26, 11
  %28 = zext nneg i32 %27 to i64
  %29 = getelementptr inbounds nuw [11 x %struct.SessionRow], ptr @SessionCache, i64 0, i64 %28
  %.not29 = icmp eq i8 %3, 0
  br i1 %.not29, label %32, label %30

30:                                               ; preds = %9
  %31 = call i32 @wc_LockRwLock_Rd(ptr noundef nonnull @session_lock) #22
  br label %34

32:                                               ; preds = %9
  %33 = call i32 @wc_LockRwLock_Wr(ptr noundef nonnull @session_lock) #22
  br label %34

34:                                               ; preds = %32, %30
  %storemerge = phi i32 [ %33, %32 ], [ %31, %30 ]
  %.not30 = icmp eq i32 %storemerge, 0
  br i1 %.not30, label %35, label %66

35:                                               ; preds = %34
  %36 = getelementptr inbounds nuw i8, ptr %29, i64 4
  %37 = load i32, ptr %36, align 4, !tbaa !80
  %.not = icmp eq i32 %37, 0
  br i1 %.not, label %._crit_edge, label %.lr.ph

.lr.ph:                                           ; preds = %35
  %38 = call noundef i32 @llvm.umin.i32(i32 %37, i32 3)
  %39 = load i32, ptr %29, align 16, !tbaa !83
  %40 = add i32 %39, -4
  %or.cond = icmp ult i32 %40, -3
  %41 = add nsw i32 %39, -1
  %spec.store.select = select i1 %or.cond, i32 2, i32 %41
  %42 = getelementptr inbounds nuw i8, ptr %29, i64 8
  br label %43

43:                                               ; preds = %.lr.ph, %56
  %.032 = phi i32 [ %spec.store.select, %.lr.ph ], [ %59, %56 ]
  %.02631 = phi i32 [ %38, %.lr.ph ], [ %60, %56 ]
  %44 = sext i32 %.032 to i64
  %45 = getelementptr inbounds [3 x %struct.WOLFSSL_SESSION], ptr %42, i64 0, i64 %44
  %46 = getelementptr inbounds nuw i8, ptr %45, i64 148
  %47 = load i8, ptr %46, align 4, !tbaa !77
  %48 = icmp eq i8 %47, 32
  br i1 %48, label %49, label %56

49:                                               ; preds = %43
  %50 = getelementptr inbounds nuw i8, ptr %45, i64 104
  %51 = load i8, ptr %50, align 8, !tbaa !79
  %52 = icmp eq i8 %51, %4
  br i1 %52, label %53, label %56

53:                                               ; preds = %49
  %54 = getelementptr inbounds nuw i8, ptr %45, i64 116
  %bcmp = call i32 @bcmp(ptr noundef nonnull dereferenceable(32) %54, ptr noundef nonnull dereferenceable(32) %0, i64 32)
  %55 = icmp eq i32 %bcmp, 0
  br i1 %55, label %.thread, label %56

.thread:                                          ; preds = %53
  store ptr %45, ptr %1, align 8, !tbaa !108
  br label %65

56:                                               ; preds = %53, %49, %43
  %57 = icmp sgt i32 %.032, 0
  %58 = add nsw i32 %.032, -1
  %59 = select i1 %57, i32 %58, i32 2
  %60 = add nsw i32 %.02631, -1
  %61 = icmp sgt i32 %.02631, 1
  br i1 %61, label %43, label %._crit_edge, !llvm.loop !109

._crit_edge:                                      ; preds = %56, %35
  %.pr = load ptr, ptr %1, align 8, !tbaa !108
  %62 = icmp eq ptr %.pr, null
  br i1 %62, label %63, label %65

63:                                               ; preds = %._crit_edge
  %64 = call i32 @wc_UnLockRwLock(ptr noundef nonnull @session_lock) #22
  br label %66

65:                                               ; preds = %.thread, %._crit_edge
  store i32 %27, ptr %2, align 4, !tbaa !3
  br label %66

66:                                               ; preds = %HashObject.exit, %63, %65, %34
  %.027 = phi i32 [ %7, %HashObject.exit ], [ -313, %34 ], [ 0, %65 ], [ 0, %63 ]
  ret i32 %.027
}